; ModuleID = 'source-C-CXX/22/809.c'
source_filename = "source-C-CXX/22/809.c"
target datalayout = "e-m:e-p270:32:32-p271:32:32-p272:64:64-i64:64-f80:128-n8:16:32:64-S128"
target triple = "x86_64-pc-linux-gnu"

; Function Attrs: nounwind sspstrong uwtable
define dso_local i32 @main() local_unnamed_addr #0 {
  %1 = tail call noalias align 16 dereferenceable_or_null(100) i8* @malloc(i64 100) #5
  %2 = tail call i32 (i8*, ...) bitcast (i32 (...)* @gets to i32 (i8*, ...)*)(i8* %1) #5
  %3 = tail call i64 @strlen(i8* noundef nonnull dereferenceable(1) %1) #6
  %4 = trunc i64 %3 to i32
  %5 = icmp sgt i32 %4, 0
  br i1 %5, label %6, label %51

6:                                                ; preds = %0
  %7 = and i64 %3, 4294967295
  br label %8

8:                                                ; preds = %6, %47
  %9 = phi i64 [ %7, %6 ], [ %50, %47 ]
  %10 = phi i32 [ %4, %6 ], [ %12, %47 ]
  %11 = phi i32 [ 0, %6 ], [ %48, %47 ]
  %12 = add nsw i32 %10, -1
  %13 = zext i32 %12 to i64
  %14 = getelementptr inbounds i8, i8* %1, i64 %13
  %15 = load i8, i8* %14, align 1, !tbaa !5
  %16 = icmp eq i8 %15, 32
  br i1 %16, label %17, label %32

17:                                               ; preds = %8
  %18 = icmp slt i32 %11, 1
  br i1 %18, label %30, label %19

19:                                               ; preds = %17
  %20 = add nuw i32 %11, 1
  %21 = zext i32 %20 to i64
  br label %22

22:                                               ; preds = %19, %22
  %23 = phi i64 [ 1, %19 ], [ %28, %22 ]
  %24 = getelementptr inbounds i8, i8* %14, i64 %23
  %25 = load i8, i8* %24, align 1, !tbaa !5
  %26 = sext i8 %25 to i32
  %27 = tail call i32 @putchar(i32 %26)
  %28 = add nuw nsw i64 %23, 1
  %29 = icmp eq i64 %28, %21
  br i1 %29, label %30, label %22, !llvm.loop !8

30:                                               ; preds = %22, %17
  %31 = tail call i32 @putchar(i32 32)
  br label %47

32:                                               ; preds = %8
  %33 = add nsw i32 %11, 1
  %34 = icmp eq i32 %12, 0
  %35 = icmp sgt i32 %11, -1
  %36 = select i1 %34, i1 %35, i1 false
  br i1 %36, label %37, label %47

37:                                               ; preds = %32
  %38 = zext i32 %33 to i64
  br label %39

39:                                               ; preds = %37, %39
  %40 = phi i64 [ 0, %37 ], [ %45, %39 ]
  %41 = getelementptr inbounds i8, i8* %1, i64 %40
  %42 = load i8, i8* %41, align 1, !tbaa !5
  %43 = sext i8 %42 to i32
  %44 = tail call i32 @putchar(i32 %43)
  %45 = add nuw nsw i64 %40, 1
  %46 = icmp eq i64 %45, %38
  br i1 %46, label %47, label %39, !llvm.loop !10

47:                                               ; preds = %39, %30, %32
  %48 = phi i32 [ 0, %30 ], [ %33, %32 ], [ %33, %39 ]
  %49 = icmp sgt i64 %9, 1
  %50 = add nsw i64 %9, -1
  br i1 %49, label %8, label %51, !llvm.loop !11

51:                                               ; preds = %47, %0
  ret i32 0
}

; Function Attrs: inaccessiblememonly mustprogress nofree nounwind willreturn
declare noalias noundef align 16 i8* @malloc(i64 noundef) local_unnamed_addr #1

declare i32 @gets(...) local_unnamed_addr #2

; Function Attrs: argmemonly mustprogress nofree nounwind readonly willreturn
declare i64 @strlen(i8* nocapture) local_unnamed_addr #3

; Function Attrs: nofree nounwind
declare noundef i32 @putchar(i32 noundef) local_unnamed_addr #4


!llvm.module.flags = !{!0, !1, !2, !3}
!llvm.ident = !{!4}

!0 = !{i32 1, !"wchar_size", i32 4}
!1 = !{i32 7, !"PIC Level", i32 2}
!2 = !{i32 7, !"PIE Level", i32 2}
!3 = !{i32 7, !"uwtable", i32 1}
!4 = !{!"clang version 13.0.0"}
!5 = !{!6, !6, i64 0}
!6 = !{!"omnipotent char", !7, i64 0}
!7 = !{!"Simple C/C++ TBAA"}
!8 = distinct !{!8, !9}
!9 = !{!"llvm.loop.mustprogress"}
!10 = distinct !{!10, !9}
!11 = distinct !{!11, !9}
